; Function Attrs: mustprogress nounwind uwtable
define noundef zeroext i1 @_ZNK4LIEF5MachO14RelocationDyldgtERKS1_(ptr noundef nonnull align 8 dereferenceable(56) %0, ptr noundef nonnull align 8 dereferenceable(56) %1) local_unnamed_addr #0 align 2 {
  %3 = load ptr, ptr %0, align 8, !tbaa !3
  %4 = getelementptr inbounds nuw i8, ptr %3, i64 120
  %5 = load ptr, ptr %4, align 8
  %6 = tail call noundef zeroext i8 %5(ptr noundef nonnull align 8 dereferenceable(56) %0) #5
  %7 = load ptr, ptr %1, align 8, !tbaa !3
  %8 = getelementptr inbounds nuw i8, ptr %7, i64 120
  %9 = load ptr, ptr %8, align 8
  %10 = tail call noundef zeroext i8 %9(ptr noundef nonnull align 8 dereferenceable(56) %1) #5
  %.not = icmp eq i8 %6, %10
  %11 = load ptr, ptr %0, align 8, !tbaa !3
  br i1 %.not, label %21, label %12

12:                                               ; preds = %2
  %13 = getelementptr inbounds nuw i8, ptr %11, i64 120
  %14 = load ptr, ptr %13, align 8
  %15 = tail call noundef zeroext i8 %14(ptr noundef nonnull align 8 dereferenceable(56) %0) #5
  %16 = load ptr, ptr %1, align 8, !tbaa !3
  %17 = getelementptr inbounds nuw i8, ptr %16, i64 120
  %18 = load ptr, ptr %17, align 8
  %19 = tail call noundef zeroext i8 %18(ptr noundef nonnull align 8 dereferenceable(56) %1) #5
  %20 = icmp ugt i8 %15, %19
  br label %30

21:                                               ; preds = %2
  %22 = getelementptr inbounds nuw i8, ptr %11, i64 40
  %23 = load ptr, ptr %22, align 8
  %24 = tail call noundef i64 %23(ptr noundef nonnull align 8 dereferenceable(17) %0) #5
  %25 = load ptr, ptr %1, align 8, !tbaa !3
  %26 = getelementptr inbounds nuw i8, ptr %25, i64 40
  %27 = load ptr, ptr %26, align 8
  %28 = tail call noundef i64 %27(ptr noundef nonnull align 8 dereferenceable(17) %1) #5
  %29 = icmp ugt i64 %24, %28
  br label %30

30:                                               ; preds = %21, %12
  %.0 = phi i1 [ %20, %12 ], [ %29, %21 ]
  ret i1 %.0
}